; Function Attrs: mustprogress nofree norecurse nosync nounwind willreturn memory(read, argmem: readwrite, inaccessiblemem: none) uwtable
define internal noundef float @_ZN5faiss12_GLOBAL__N_114FlatHammingDisINS_17HammingComputer20EEclEl(ptr nocapture noundef nonnull align 8 dereferenceable(56) %0, i64 noundef %1) unnamed_addr #18 align 2 {
  %3 = getelementptr inbounds i8, ptr %0, i64 24
  %4 = load i64, ptr %3, align 8
  %5 = add i64 %4, 1
  store i64 %5, ptr %3, align 8
  %6 = getelementptr inbounds i8, ptr %0, i64 32
  %7 = getelementptr inbounds i8, ptr %0, i64 16
  %8 = load ptr, ptr %7, align 8
  %9 = getelementptr inbounds i8, ptr %0, i64 8
  %10 = load i32, ptr %9, align 8
  %11 = sext i32 %10 to i64
  %12 = mul nsw i64 %11, %1
  %13 = getelementptr inbounds i8, ptr %8, i64 %12
  %14 = load <2 x i64>, ptr %13, align 8
  %15 = load <2 x i64>, ptr %6, align 8
  %16 = xor <2 x i64> %15, %14
  %17 = tail call <2 x i64> @llvm.ctpop.v2i64(<2 x i64> %16), !range !29
  %18 = trunc <2 x i64> %17 to <2 x i32>
  %shift = shufflevector <2 x i32> %18, <2 x i32> poison, <2 x i32> <i32 1, i32 poison>
  %19 = add nuw nsw <2 x i32> %shift, %18
  %20 = extractelement <2 x i32> %19, i64 0
  %21 = getelementptr inbounds i8, ptr %13, i64 16
  %22 = load i32, ptr %21, align 4
  %23 = getelementptr inbounds i8, ptr %0, i64 48
  %24 = load i32, ptr %23, align 8
  %25 = xor i32 %24, %22
  %26 = tail call i32 @llvm.ctpop.i32(i32 %25), !range !28
  %27 = add nuw nsw i32 %20, %26
  %28 = sitofp i32 %27 to float
  ret float %28
}